target datalayout = "e-m:e-p270:32:32-p271:32:32-p272:64:64-i64:64-i128:128-f80:128-n8:16:32:64-S128"
target triple = "x86_64-pc-linux-gnu"

%"class.duckdb::unique_ptr.66" = type { %"class.std::unique_ptr.67" }
%"class.std::unique_ptr.67" = type { %"struct.std::__uniq_ptr_data.68" }
%"struct.std::__uniq_ptr_data.68" = type { %"class.std::__uniq_ptr_impl.69" }
%"class.std::__uniq_ptr_impl.69" = type { %"class.std::tuple.70" }
%"class.std::tuple.70" = type { %"struct.std::_Tuple_impl.71" }
%"struct.std::_Tuple_impl.71" = type { %"struct.std::_Head_base.74" }
%"struct.std::_Head_base.74" = type { ptr }
%"class.duckdb::ParquetBloomFilter" = type { %"class.duckdb::unique_ptr.66", i64 }
%"class.duckdb::ByteBuffer" = type { ptr, i64 }

; Function Attrs: mustprogress nounwind uwtable
define linkonce_odr noundef double @_ZN6duckdb16LossyNumericCastIdmEET_T0_(i64 noundef %0) #6 comdat {
  %2 = alloca i64, align 8
  store i64 %0, ptr %2, align 8, !tbaa !43
  %3 = load i64, ptr %2, align 8, !tbaa !43
  %4 = uitofp i64 %3 to double
  ret double %4
}

; Function Attrs: mustprogress nounwind uwtable
define internal noundef zeroext i8 @_ZN6duckdbL8PopCnt64Em(i64 noundef %0) #6 {
  %2 = alloca i64, align 8
  %3 = alloca i8, align 1
  store i64 %0, ptr %2, align 8, !tbaa !43
  call void @llvm.lifetime.start.p0(i64 1, ptr %3) #3
  store i8 0, ptr %3, align 1, !tbaa !42
  br label %4

4:                                                ; preds = %12, %1
  %5 = load i64, ptr %2, align 8, !tbaa !43
  %6 = icmp ne i64 %5, 0
  br i1 %6, label %7, label %15

7:                                                ; preds = %4
  %8 = load i64, ptr %2, align 8, !tbaa !43
  %9 = sub i64 %8, 1
  %10 = load i64, ptr %2, align 8, !tbaa !43
  %11 = and i64 %10, %9
  store i64 %11, ptr %2, align 8, !tbaa !43
  br label %12

12:                                               ; preds = %7
  %13 = load i8, ptr %3, align 1, !tbaa !42
  %14 = add i8 %13, 1
  store i8 %14, ptr %3, align 1, !tbaa !42
  br label %4, !llvm.loop !264

15:                                               ; preds = %4
  %16 = load i8, ptr %3, align 1, !tbaa !42
  call void @llvm.lifetime.end.p0(i64 1, ptr %3) #3
  ret i8 %16
}

; Function Attrs: mustprogress uwtable
define noundef double @_ZN6duckdb18ParquetBloomFilter8OneRatioEv(ptr noundef nonnull align 8 dereferenceable(16) %0) #4 align 2 {
  %2 = alloca ptr, align 8
  %3 = alloca ptr, align 8
  %4 = alloca i64, align 8
  %5 = alloca i64, align 8
  store ptr %0, ptr %2, align 8, !tbaa !244
  %6 = load ptr, ptr %2, align 8
  call void @llvm.lifetime.start.p0(i64 8, ptr %3) #3
  %7 = getelementptr inbounds nuw %"class.duckdb::ParquetBloomFilter", ptr %6, i32 0, i32 0
  %8 = call noundef ptr @_ZNK6duckdb10unique_ptrINS_16ResizeableBufferESt14default_deleteIS1_ELb1EEptEv(ptr noundef nonnull align 8 dereferenceable(8) %7)
  %9 = getelementptr inbounds nuw %"class.duckdb::ByteBuffer", ptr %8, i32 0, i32 0
  %10 = load ptr, ptr %9, align 8, !tbaa !163
  store ptr %10, ptr %3, align 8, !tbaa !256
  call void @llvm.lifetime.start.p0(i64 8, ptr %4) #3
  store i64 0, ptr %4, align 8, !tbaa !43
  call void @llvm.lifetime.start.p0(i64 8, ptr %5) #3
  store i64 0, ptr %5, align 8, !tbaa !43
  br label %11

11:                                               ; preds = %29, %1
  %12 = load i64, ptr %5, align 8, !tbaa !43
  %13 = getelementptr inbounds nuw %"class.duckdb::ParquetBloomFilter", ptr %6, i32 0, i32 0
  %14 = call noundef ptr @_ZNK6duckdb10unique_ptrINS_16ResizeableBufferESt14default_deleteIS1_ELb1EEptEv(ptr noundef nonnull align 8 dereferenceable(8) %13)
  %15 = getelementptr inbounds nuw %"class.duckdb::ByteBuffer", ptr %14, i32 0, i32 1
  %16 = load i64, ptr %15, align 8, !tbaa !246
  %17 = udiv i64 %16, 8
  %18 = icmp ult i64 %12, %17
  br i1 %18, label %20, label %19

19:                                               ; preds = %11
  call void @llvm.lifetime.end.p0(i64 8, ptr %5) #3
  br label %32

20:                                               ; preds = %11
  %21 = load ptr, ptr %3, align 8, !tbaa !256
  %22 = load i64, ptr %5, align 8, !tbaa !43
  %23 = getelementptr inbounds nuw i64, ptr %21, i64 %22
  %24 = load i64, ptr %23, align 8, !tbaa !43
  %25 = call noundef zeroext i8 @_ZN6duckdbL8PopCnt64Em(i64 noundef %24)
  %26 = zext i8 %25 to i64
  %27 = load i64, ptr %4, align 8, !tbaa !43
  %28 = add i64 %27, %26
  store i64 %28, ptr %4, align 8, !tbaa !43
  br label %29

29:                                               ; preds = %20
  %30 = load i64, ptr %5, align 8, !tbaa !43
  %31 = add i64 %30, 1
  store i64 %31, ptr %5, align 8, !tbaa !43
  br label %11, !llvm.loop !263

32:                                               ; preds = %19
  %33 = load i64, ptr %4, align 8, !tbaa !43
  %34 = call noundef double @_ZN6duckdb16LossyNumericCastIdmEET_T0_(i64 noundef %33)
  %35 = getelementptr inbounds nuw %"class.duckdb::ParquetBloomFilter", ptr %6, i32 0, i32 0
  %36 = call noundef ptr @_ZNK6duckdb10unique_ptrINS_16ResizeableBufferESt14default_deleteIS1_ELb1EEptEv(ptr noundef nonnull align 8 dereferenceable(8) %35)
  %37 = getelementptr inbounds nuw %"class.duckdb::ByteBuffer", ptr %36, i32 0, i32 1
  %38 = load i64, ptr %37, align 8, !tbaa !246
  %39 = call noundef double @_ZN6duckdb16LossyNumericCastIdmEET_T0_(i64 noundef %38)
  %40 = fmul double %39, 8.000000e+00
  %41 = fdiv double %34, %40
  call void @llvm.lifetime.end.p0(i64 8, ptr %4) #3
  call void @llvm.lifetime.end.p0(i64 8, ptr %3) #3
  ret double %41
}