; Function Attrs: mustprogress uwtable
define noundef double @_ZN6duckdb18ParquetBloomFilter8OneRatioEv(ptr noundef nonnull align 8 dereferenceable(16) %0) local_unnamed_addr #3 align 2 {
  %2 = tail call noundef ptr @_ZNK6duckdb10unique_ptrINS_16ResizeableBufferESt14default_deleteIS1_ELb1EEptEv(ptr noundef nonnull align 8 dereferenceable(8) %0)
  %3 = load ptr, ptr %2, align 8, !tbaa !145
  %4 = tail call noundef ptr @_ZNK6duckdb10unique_ptrINS_16ResizeableBufferESt14default_deleteIS1_ELb1EEptEv(ptr noundef nonnull align 8 dereferenceable(8) %0)
  %5 = getelementptr inbounds nuw i8, ptr %4, i64 8
  %6 = load i64, ptr %5, align 8, !tbaa !209
  %.not = icmp ult i64 %6, 8
  br i1 %.not, label %._crit_edge, label %.lr.ph

._crit_edge.loopexit:                             ; preds = %_ZN6duckdbL8PopCnt64Em.exit
  %7 = uitofp i64 %20 to double
  br label %._crit_edge

._crit_edge:                                      ; preds = %._crit_edge.loopexit, %1
  %.06.lcssa = phi double [ 0.000000e+00, %1 ], [ %7, %._crit_edge.loopexit ]
  %8 = tail call noundef ptr @_ZNK6duckdb10unique_ptrINS_16ResizeableBufferESt14default_deleteIS1_ELb1EEptEv(ptr noundef nonnull align 8 dereferenceable(8) %0)
  %9 = getelementptr inbounds nuw i8, ptr %8, i64 8
  %10 = load i64, ptr %9, align 8, !tbaa !209
  %11 = uitofp i64 %10 to double
  %12 = fmul double %11, 8.000000e+00
  %13 = fdiv double %.06.lcssa, %12
  ret double %13

.lr.ph:                                           ; preds = %1, %_ZN6duckdbL8PopCnt64Em.exit
  %.08 = phi i64 [ %21, %_ZN6duckdbL8PopCnt64Em.exit ], [ 0, %1 ]
  %.067 = phi i64 [ %20, %_ZN6duckdbL8PopCnt64Em.exit ], [ 0, %1 ]
  %14 = getelementptr inbounds nuw i64, ptr %3, i64 %.08
  %15 = load i64, ptr %14, align 8, !tbaa !38
  %.not6.i = icmp eq i64 %15, 0
  br i1 %.not6.i, label %_ZN6duckdbL8PopCnt64Em.exit, label %.lr.ph.i

.lr.ph.i:                                         ; preds = %.lr.ph, %.lr.ph.i
  %.08.i = phi i8 [ %18, %.lr.ph.i ], [ 0, %.lr.ph ]
  %.057.i = phi i64 [ %17, %.lr.ph.i ], [ %15, %.lr.ph ]
  %16 = add i64 %.057.i, -1
  %17 = and i64 %16, %.057.i
  %18 = add i8 %.08.i, 1
  %.not.i = icmp eq i64 %17, 0
  br i1 %.not.i, label %_ZN6duckdbL8PopCnt64Em.exit.loopexit, label %.lr.ph.i, !llvm.loop !211

_ZN6duckdbL8PopCnt64Em.exit.loopexit:             ; preds = %.lr.ph.i
  %19 = zext i8 %18 to i64
  br label %_ZN6duckdbL8PopCnt64Em.exit

_ZN6duckdbL8PopCnt64Em.exit:                      ; preds = %_ZN6duckdbL8PopCnt64Em.exit.loopexit, %.lr.ph
  %.0.lcssa.i = phi i64 [ 0, %.lr.ph ], [ %19, %_ZN6duckdbL8PopCnt64Em.exit.loopexit ]
  %20 = add i64 %.067, %.0.lcssa.i
  %21 = add nuw nsw i64 %.08, 1
  %22 = tail call noundef ptr @_ZNK6duckdb10unique_ptrINS_16ResizeableBufferESt14default_deleteIS1_ELb1EEptEv(ptr noundef nonnull align 8 dereferenceable(8) %0)
  %23 = getelementptr inbounds nuw i8, ptr %22, i64 8
  %24 = load i64, ptr %23, align 8, !tbaa !209
  %25 = lshr i64 %24, 3
  %26 = icmp samesign ult i64 %21, %25
  br i1 %26, label %.lr.ph, label %._crit_edge.loopexit, !llvm.loop !212
}